target datalayout = "e-m:e-p270:32:32-p271:32:32-p272:64:64-i64:64-i128:128-f80:128-n8:16:32:64-S128"
target triple = "x86_64-pc-linux-gnu"

%struct.List = type { i32, i32, i32, ptr, [0 x %union.ListCell] }
%union.ListCell = type { ptr }
%struct.RangeTblEntry = type { i32, ptr, ptr, i32, i32, i8, i8, i32, i32, ptr, ptr, i8, i32, i32, ptr, ptr, ptr, ptr, ptr, i8, ptr, ptr, ptr, i32, i8, ptr, ptr, ptr, ptr, double, ptr, i8, i8, ptr }
%struct.RTEPermissionInfo = type { i32, i32, i8, i64, i32, ptr, ptr, ptr }
%struct.Node = type { i32 }

; Function Attrs: inlinehint nounwind uwtable
define internal i32 @list_length(ptr noundef %0) #6 {
  %2 = alloca ptr, align 8
  store ptr %0, ptr %2, align 8
  %3 = load ptr, ptr %2, align 8
  %4 = icmp ne ptr %3, null
  br i1 %4, label %5, label %9

5:                                                ; preds = %1
  %6 = load ptr, ptr %2, align 8
  %7 = getelementptr inbounds nuw %struct.List, ptr %6, i32 0, i32 1
  %8 = load i32, ptr %7, align 4
  br label %10

9:                                                ; preds = %1
  br label %10

10:                                               ; preds = %9, %5
  %11 = phi i32 [ %8, %5 ], [ 0, %9 ]
  ret i32 %11
}

; Function Attrs: inlinehint nounwind uwtable
define internal ptr @newNode(i64 noundef %0, i32 noundef %1) #6 {
  %3 = alloca i64, align 8
  %4 = alloca i32, align 4
  %5 = alloca ptr, align 8
  store i64 %0, ptr %3, align 8
  store i32 %1, ptr %4, align 4
  call void @llvm.lifetime.start.p0(i64 8, ptr %5) #8
  %6 = load i64, ptr %3, align 8
  %7 = call ptr @palloc0(i64 noundef %6)
  store ptr %7, ptr %5, align 8
  %8 = load i32, ptr %4, align 4
  %9 = load ptr, ptr %5, align 8
  %10 = getelementptr inbounds nuw %struct.Node, ptr %9, i32 0, i32 0
  store i32 %8, ptr %10, align 4
  %11 = load ptr, ptr %5, align 8
  call void @llvm.lifetime.end.p0(i64 8, ptr %5) #8
  ret ptr %11
}

; Function Attrs: nounwind uwtable
define dso_local ptr @addRTEPermissionInfo(ptr noundef %0, ptr noundef %1) #0 {
  %3 = alloca ptr, align 8
  %4 = alloca ptr, align 8
  %5 = alloca ptr, align 8
  store ptr %0, ptr %3, align 8
  store ptr %1, ptr %4, align 8
  call void @llvm.lifetime.start.p0(i64 8, ptr %5) #8
  %6 = call ptr @newNode(i64 noundef 56, i32 noundef 102)
  store ptr %6, ptr %5, align 8
  %7 = load ptr, ptr %4, align 8
  %8 = getelementptr inbounds nuw %struct.RangeTblEntry, ptr %7, i32 0, i32 4
  %9 = load i32, ptr %8, align 4
  %10 = load ptr, ptr %5, align 8
  %11 = getelementptr inbounds nuw %struct.RTEPermissionInfo, ptr %10, i32 0, i32 1
  store i32 %9, ptr %11, align 4
  %12 = load ptr, ptr %4, align 8
  %13 = getelementptr inbounds nuw %struct.RangeTblEntry, ptr %12, i32 0, i32 5
  %14 = load i8, ptr %13, align 8, !range !6, !noundef !7
  %15 = trunc i8 %14 to i1
  %16 = load ptr, ptr %5, align 8
  %17 = getelementptr inbounds nuw %struct.RTEPermissionInfo, ptr %16, i32 0, i32 2
  %18 = zext i1 %15 to i8
  store i8 %18, ptr %17, align 8
  %19 = load ptr, ptr %3, align 8
  %20 = load ptr, ptr %19, align 8
  %21 = load ptr, ptr %5, align 8
  %22 = call ptr @lappend(ptr noundef %20, ptr noundef %21)
  %23 = load ptr, ptr %3, align 8
  store ptr %22, ptr %23, align 8
  %24 = load ptr, ptr %3, align 8
  %25 = load ptr, ptr %24, align 8
  %26 = call i32 @list_length(ptr noundef %25)
  %27 = load ptr, ptr %4, align 8
  %28 = getelementptr inbounds nuw %struct.RangeTblEntry, ptr %27, i32 0, i32 8
  store i32 %26, ptr %28, align 8
  %29 = load ptr, ptr %5, align 8
  call void @llvm.lifetime.end.p0(i64 8, ptr %5) #8
  ret ptr %29
}