; Function Attrs: nounwind uwtable
define dso_local noundef ptr @addRTEPermissionInfo(ptr noundef captures(none) %0, ptr noundef captures(none) initializes((40, 44)) %1) local_unnamed_addr #0 {
  %3 = tail call noundef ptr @palloc0(i64 noundef 56) #11
  store i32 102, ptr %3, align 4
  %4 = getelementptr inbounds nuw i8, ptr %1, i64 28
  %5 = load i32, ptr %4, align 4
  %6 = getelementptr inbounds nuw i8, ptr %3, i64 4
  store i32 %5, ptr %6, align 4
  %7 = getelementptr inbounds nuw i8, ptr %1, i64 32
  %8 = load i8, ptr %7, align 8, !range !4, !noundef !5
  %9 = getelementptr inbounds nuw i8, ptr %3, i64 8
  store i8 %8, ptr %9, align 8
  %10 = load ptr, ptr %0, align 8
  %11 = tail call ptr @lappend(ptr noundef %10, ptr noundef nonnull %3) #11
  store ptr %11, ptr %0, align 8
  %.not.i = icmp eq ptr %11, null
  br i1 %.not.i, label %list_length.exit, label %12

12:                                               ; preds = %2
  %13 = getelementptr inbounds nuw i8, ptr %11, i64 4
  %14 = load i32, ptr %13, align 4
  br label %list_length.exit

list_length.exit:                                 ; preds = %2, %12
  %15 = phi i32 [ %14, %12 ], [ 0, %2 ]
  %16 = getelementptr inbounds nuw i8, ptr %1, i64 40
  store i32 %15, ptr %16, align 8
  ret ptr %3
}